target datalayout = "e-m:e-p270:32:32-p271:32:32-p272:64:64-i64:64-i128:128-f80:128-n8:16:32:64-S128"
target triple = "x86_64-pc-linux-gnu"

@max_replication_slots = dso_local global i32 10, align 4

; Function Attrs: nounwind uwtable
define dso_local i64 @ReplicationSlotsShmemSize() #0 {
  %1 = alloca i64, align 8
  %2 = alloca i64, align 8
  %3 = alloca i32, align 4
  call void @llvm.lifetime.start.p0(i64 8, ptr %2) #12
  store i64 0, ptr %2, align 8
  %4 = load i32, ptr @max_replication_slots, align 4
  %5 = icmp eq i32 %4, 0
  br i1 %5, label %6, label %8

6:                                                ; preds = %0
  %7 = load i64, ptr %2, align 8
  store i64 %7, ptr %1, align 8
  store i32 1, ptr %3, align 4
  br label %15

8:                                                ; preds = %0
  store i64 0, ptr %2, align 8
  %9 = load i64, ptr %2, align 8
  %10 = load i32, ptr @max_replication_slots, align 4
  %11 = sext i32 %10 to i64
  %12 = call i64 @mul_size(i64 noundef %11, i64 noundef 280)
  %13 = call i64 @add_size(i64 noundef %9, i64 noundef %12)
  store i64 %13, ptr %2, align 8
  %14 = load i64, ptr %2, align 8
  store i64 %14, ptr %1, align 8
  store i32 1, ptr %3, align 4
  br label %15

15:                                               ; preds = %8, %6
  call void @llvm.lifetime.end.p0(i64 8, ptr %2) #12
  %16 = load i64, ptr %1, align 8
  ret i64 %16
}