; Function Attrs: nounwind uwtable
define dso_local i64 @ReplicationSlotsShmemSize() local_unnamed_addr #0 {
  %1 = load i32, ptr @max_replication_slots, align 4
  %2 = icmp eq i32 %1, 0
  br i1 %2, label %7, label %3

3:                                                ; preds = %0
  %4 = sext i32 %1 to i64
  %5 = tail call i64 @mul_size(i64 noundef %4, i64 noundef 280) #17
  %6 = tail call i64 @add_size(i64 noundef 0, i64 noundef %5) #17
  br label %7

7:                                                ; preds = %0, %3
  %.0 = phi i64 [ %6, %3 ], [ 0, %0 ]
  ret i64 %.0
}